target datalayout = "e-m:e-p270:32:32-p271:32:32-p272:64:64-i64:64-i128:128-f80:128-n8:16:32:64-S128"
target triple = "x86_64-pc-linux-gnu"

@hf_r3_nvramchecksumvalue = internal global i32 0, align 4
@hf_r3_nvramchecksumvalue_fixup = internal global i32 0, align 4
@.str.1860 = private unnamed_addr constant [29 x i8] c"%s:%u: failed assertion \22%s\22\00", align 1
@.str.1861 = private unnamed_addr constant [33 x i8] c"epan/dissectors/packet-assa_r3.c\00", align 1
@.str.1862 = private unnamed_addr constant [18 x i8] c"start_offset == 0\00", align 1

; Function Attrs: null_pointer_is_valid sspstrong uwtable
define internal void @dissect_r3_upstreammfgfield_nvramchecksumvalue(ptr noundef %0, i32 noundef %1, i32 noundef %2, ptr noundef %3, ptr noundef %4) #0 {
  %6 = alloca ptr, align 8
  %7 = alloca i32, align 4
  %8 = alloca i32, align 4
  %9 = alloca ptr, align 8
  %10 = alloca ptr, align 8
  store ptr %0, ptr %6, align 8
  store i32 %1, ptr %7, align 4
  store i32 %2, ptr %8, align 4
  store ptr %3, ptr %9, align 8
  store ptr %4, ptr %10, align 8
  %11 = load ptr, ptr %10, align 8
  %12 = icmp ne ptr %11, null
  br i1 %12, label %13, label %28

13:                                               ; preds = %5
  %14 = load i32, ptr %7, align 4
  %15 = icmp eq i32 %14, 0
  br i1 %15, label %16, label %17

16:                                               ; preds = %13
  br label %19

17:                                               ; preds = %13
  call void (ptr, ...) @proto_report_dissector_bug(ptr noundef @.str.1860, ptr noundef @.str.1861, i32 noundef 4867, ptr noundef @.str.1862) #6
  unreachable

18:                                               ; No predecessors!
  br label %19

19:                                               ; preds = %18, %16
  %20 = load ptr, ptr %10, align 8
  %21 = load i32, ptr @hf_r3_nvramchecksumvalue, align 4
  %22 = load ptr, ptr %6, align 8
  %23 = call ptr @proto_tree_add_item(ptr noundef %20, i32 noundef %21, ptr noundef %22, i32 noundef 0, i32 noundef 4, i32 noundef -2147483648)
  %24 = load ptr, ptr %10, align 8
  %25 = load i32, ptr @hf_r3_nvramchecksumvalue_fixup, align 4
  %26 = load ptr, ptr %6, align 8
  %27 = call ptr @proto_tree_add_item(ptr noundef %24, i32 noundef %25, ptr noundef %26, i32 noundef 4, i32 noundef 4, i32 noundef -2147483648)
  br label %28

28:                                               ; preds = %19, %5
  ret void
}