; Function Attrs: null_pointer_is_valid sspstrong uwtable
define internal void @dissect_r3_upstreammfgfield_nvramchecksumvalue(ptr noundef %0, i32 noundef %1, i32 %2, ptr readnone captures(none) %3, ptr noundef %4) #0 {
  %.not = icmp eq ptr %4, null
  br i1 %.not, label %14, label %6

6:                                                ; preds = %5
  %7 = icmp eq i32 %1, 0
  br i1 %7, label %9, label %8

8:                                                ; preds = %6
  tail call void (ptr, ...) @proto_report_dissector_bug(ptr noundef nonnull @.str.1860, ptr noundef nonnull @.str.1861, i32 noundef 4867, ptr noundef nonnull @.str.1862) #6
  unreachable

9:                                                ; preds = %6
  %10 = load i32, ptr @hf_r3_nvramchecksumvalue, align 4
  %11 = tail call ptr @proto_tree_add_item(ptr noundef nonnull %4, i32 noundef %10, ptr noundef %0, i32 noundef 0, i32 noundef 4, i32 noundef -2147483648)
  %12 = load i32, ptr @hf_r3_nvramchecksumvalue_fixup, align 4
  %13 = tail call ptr @proto_tree_add_item(ptr noundef nonnull %4, i32 noundef %12, ptr noundef %0, i32 noundef 4, i32 noundef 4, i32 noundef -2147483648)
  br label %14

14:                                               ; preds = %9, %5
  ret void
}